; Function Attrs: nounwind uwtable
define internal noundef ptr @blob_enter(ptr noundef %0, ptr readnone captures(none) %1) #0 {
  %3 = getelementptr inbounds nuw i8, ptr %0, i64 16
  %4 = load ptr, ptr %3, align 8, !tbaa !39
  %5 = tail call i32 @pysqlite_check_connection(ptr noundef %4) #5
  %.not.i.i = icmp eq i32 %5, 0
  br i1 %.not.i.i, label %blob_enter_impl.exit, label %6

6:                                                ; preds = %2
  %7 = load ptr, ptr %3, align 8, !tbaa !39
  %8 = tail call i32 @pysqlite_check_thread(ptr noundef %7) #5
  %.not5.i.i = icmp eq i32 %8, 0
  br i1 %.not5.i.i, label %blob_enter_impl.exit, label %9

9:                                                ; preds = %6
  %10 = getelementptr inbounds nuw i8, ptr %0, i64 24
  %11 = load ptr, ptr %10, align 8, !tbaa !22
  %12 = icmp eq ptr %11, null
  br i1 %12, label %13, label %check_blob.exit.i

13:                                               ; preds = %9
  %14 = load ptr, ptr %3, align 8, !tbaa !39
  %15 = getelementptr inbounds nuw i8, ptr %14, i64 24
  %16 = load ptr, ptr %15, align 8, !tbaa !41
  %17 = getelementptr inbounds nuw i8, ptr %16, i64 64
  %18 = load ptr, ptr %17, align 8, !tbaa !42
  tail call void @PyErr_SetString(ptr noundef %18, ptr noundef nonnull @.str.11) #5
  br label %blob_enter_impl.exit

check_blob.exit.i:                                ; preds = %9
  %19 = load i32, ptr %0, align 8, !tbaa !25
  %20 = icmp slt i32 %19, 0
  br i1 %20, label %blob_enter_impl.exit, label %21

21:                                               ; preds = %check_blob.exit.i
  %22 = add nuw i32 %19, 1
  store i32 %22, ptr %0, align 8, !tbaa !25
  br label %blob_enter_impl.exit

blob_enter_impl.exit:                             ; preds = %2, %6, %13, %check_blob.exit.i, %21
  %.0.i = phi ptr [ %0, %check_blob.exit.i ], [ %0, %21 ], [ null, %13 ], [ null, %6 ], [ null, %2 ]
  ret ptr %.0.i
}